(dp0
S'tumblr_no5kyk0Mgs1urjsaqo1_400.gif'
p1
S'some zombie are attacking a read head woman,'
p2
sS'tumblr_mtbdvn6y1D1rjj5sho1_400.gif'
p3
S'a young, shirtless man is giving the rock and roll symbol with his hands.'
p4
sS'tumblr_nmzcu205yo1qdj2qoo1_500.gif'
p5
S'a woman is laughing and holding a man, the man is not laughing'
p6
sS'tumblr_nq8ajiaBT71usj03ho1_500.gif'
p7
S'a couple standing in the sea embrace each other.'
p8
sS'tumblr_nqofwqgS8d1siem3jo1_r1_400.gif'
p9
S'a sport car is swinging on the race playground'
p10
sS'tumblr_ni2l89yZ7r1u4o6i5o1_500.gif'
p11
S'a boy and a girl are walking down hand in hand.'
p12
sS'tumblr_nqrlhsLD931uzihc0o1_500.gif'
p13
S'a person is kissing another person with heavy makeup.'
p14
sS'tumblr_nowg4sfk6D1qzefc2o1_400.gif'
p15
S'a woman in a blue shirt moved forwards.'
p16
sS'tumblr_mxtfcmpXuH1qgzzafo1_500.gif'
p17
S'a woman is posing to what appears to be a modeling photo shoot'
p18
sS'tumblr_ne86njGv9l1trq9l0o1_500.gif'
p19
S'two boys walk down a hallway and look angry'
p20
sS'tumblr_noco9fFCqL1rpe4qfo1_500.gif'
p21
S'a man with longish hair laughs then puts his head down.'
p22
sS'tumblr_npx4q3yGPC1thfk1ho1_250.gif'
p23
S'a man in a suit is talking on a cell phone.'
p24
sS'tumblr_nonrseS1vL1sjsqcyo1_500.gif'
p25
S'two women are next to each other, one of them is smoking'
p26
sS'tumblr_nq0ki6PRbw1tqvovno1_400.gif'
p27
S'two feet with painted nails is wearing high-heeled sandals.'
p28
sS'tumblr_np541orFHz1uwafnqo1_400.gif'
p29
S'a man are doing acrobatic stunts on the wing of a plane.'
p30
sS'tumblr_noish93cHw1u4k0zeo1_500.gif'
p31
S'a person with white hair is opening his mouth, there is smoke coming from bellow'
p32
sS'tumblr_nq541zHa5n1uy63pco1_r1_250.gif'
p33
S'the singer and artist are taking a look forward.'
p34
sS'tumblr_nq90j9QffG1ux81poo1_500.gif'
p35
S'a woman is smoothing her hair, and does various poses.'
p36
sS'tumblr_mkwd0y8Poo1qlnbq8o1_400.gif'
p37
S'a group of men are standing and staring in the same direction.'
p38
sS'tumblr_nqmgdj8STn1rn1g1jo1_250.gif'
p39
S'young man is clapping with his hand and dancing'
p40
sS'tumblr_np2k4xqcDt1s9b6vho1_500.gif'
p41
S'a drummer is beating the drum with lightening fast speed.'
p42
sS'tumblr_npse2pIimv1tyncywo1_400.gif'
p43
S'a wet cat in the bathtub tries to get out.'
p44
sS'tumblr_npqraj6f5R1uuxd1yo1_500.gif'
p45
S'a man looking down looks up and speaks to his reflection'
p46
sS'tumblr_nq3ofebQo51s4vpwjo1_500.gif'
p47
S'a beatles show, paul is on the front singing very enthusiastically'
p48
sS'tumblr_nogx44forU1swlz57o1_500.gif'
p49
S'a man are sticking out his tongue and shaking his head'
p50
sS'tumblr_nnkjulMoHH1qfgmtoo1_500.gif'
p51
S'a woman is standing behind a microphone and is running her fingers through her hair.'
p52
sS'tumblr_noyw22UY4p1qax7m1o1_400.gif'
p53
S'a man with glasses are staring at something.'
p54
sS'tumblr_nlbv8s8oKn1rkvwppo1_500.gif'
p55
S'a person makes a figure with his hand in a mirror'
p56
sS'tumblr_n4hv5jJDcS1t96jpzo1_500.gif'
p57
S'a gloved hand opens to reveal a golden ring.'
p58
sS'tumblr_n0aovd6keZ1sgtd4uo1_500.gif'
p59
S'a man with microphone falls back into crowd.'
p60
sS'tumblr_nmp0m0o3Iv1r44r7zo1_500.gif'
p61
S'the clouds are moving next to the full moon'
p62
sS'tumblr_nj4iqcVaFQ1s26nzro1_500.gif'
p63
S'a man are holding a bottle taps it on his head.'
p64
sS'tumblr_nqqpgscLkK1urwkppo1_400.gif'
p65
S'a woman blinks and jerks forward looking surprised.'
p66
sS'tumblr_mxp686hce71sqec3to1_500.gif'
p67
S'a man and woman are hugging in a shower.'
p68
sS'tumblr_npntschfQp1qf69tyo1_500.gif'
p69
S'a guy are kissing a girl slowly in a swimming pool.'
p70
sS'tumblr_notdrxYMLZ1uwsm9to1_400.gif'
p71
S'a man riding on some drum and beating it and singing.'
p72
sS'tumblr_mudwwxBWdn1qm26qzo1_500.gif'
p73
S'a man smiles and laughs into the microphone.'
p74
sS'tumblr_np5x4gNc1L1ux4ymjo1_500.gif'
p75
S"a couple plays with each other's hair."
p76
sS'tumblr_nohp6gAaLv1si7d5lo1_400.gif'
p77
S'a good looking guy in black is pouting.'
p78
sS'tumblr_nox28g9fv41tfkobto1_500.gif'
p79
S'a man and woman is making out in the shower'
p80
sS'tumblr_mrmmwo38f01qc03ipo1_250.gif'
p81
S'a guy makes a funny face and raises his eyebrows while putting on sunglasses'
p82
sS'tumblr_mgq9bwHRA51rhzq0oo1_500.gif'
p83
S'a shirtless man with tattoos turns around.'
p84
sS'tumblr_np9xo74UgD1ux4g5vo1_250.gif'
p85
S'a boy is happy parking and see another boy'
p86
sS'tumblr_noncfelojf1uqmy01o1_500.gif'
p87
S'a man winks, and a man with a fork motions him to be quiet.'
p88
sS'tumblr_npgxznNRd31uv0y2ro1_250.gif'
p89
S'a cute little bulldog puppy is taking his tongue out.'
p90
sS'tumblr_npzfsr13I51uyqfd5o1_500.gif'
p91
S'a skate boarder is doing trick on his skate board.'
p92
sS'tumblr_nq3arkKkE41utbf1ao1_500.gif'
p93
S'a girl who has a pink hat and clothes are smiling.'
p94
sS'tumblr_msij5q4Run1qd76t9o1_500.gif'
p95
S'a man with black clothes is dancing sexy'
p96
sS'tumblr_npuokpnu8f1szd8auo1_400.gif'
p97
S'a man with is shaking his hands up and down.'
p98
sS'tumblr_nl2atgmJOt1tam15wo1_500.gif'
p99
S'the girl with the glasses and jacket is jumping'
p100
sS'tumblr_nqc68gfjSw1uxae7wo1_400.gif'
p101
S'a girl are taking the laundry down on a windy day.'
p102
sS'tumblr_nqexpu1pOL1sqicm1o1_500.gif'
p103
S'a woman trying to control her dragon.'
p104
sS'tumblr_nl77cuGZWn1sm50zqo1_400.gif'
p105
S'a woman is talking and holding a tea towel.'
p106
sS'tumblr_n0lv33BBrb1rc0kvpo1_r1_250.gif'
p107
S'four people dressed as squirrels are dancing in the woods'
p108
sS'tumblr_npybchwzUr1ri61l0o1_400.gif'
p109
S'a skateboarder jumps onto and off a stone platform.'
p110
sS'tumblr_npc3iyfpDC1ux3xido1_400.gif'
p111
S'a girl in a football uniform is dancing and singing'
p112
sS'tumblr_noxlpdet5k1uwrtyko1_500.gif'
p113
S'a woman is putting her finger on a badge'
p114
sS'tumblr_nq789eiheZ1r3kmkso1_1280.gif'
p115
S'a man smells coffee in a brown bag.'
p116
sS'tumblr_mvuy2hVOOD1rngmtco1_500.gif'
p117
S'a lot of pines are crossing along a side of a road.'
p118
sS'tumblr_nq5nstjatI1u1lytfo1_250.gif'
p119
S'smoke is coming out of some log burning near some building.'
p120
sS'tumblr_nnn5873T0c1uqclqmo1_500.gif'
p121
S'a girl is smoking with his friend in the house'
p122
sS'tumblr_nntf25N0Fx1uu6kufo1_250.gif'
p123
S'a woman dances are holding a large pink ball.'
p124
sS'tumblr_no2up3t1Bv1usegjto1_250.gif'
p125
S'a man swing with his knife and destroy everything'
p126
sS'tumblr_mppeopxznZ1rku4s3o1_500.gif'
p127
S'an asian man is talking in front of a microphone.'
p128
sS'tumblr_n4gk7efcMw1spy7ono1_400.gif'
p129
S'the tiger is running really fast in the garden'
p130
sS'tumblr_nkymseZ2UC1u4gszco1_400.gif'
p131
S'a man is sitting on a sofa beside three others and is throwing a drumstick on the floor.'
p132
sS'tumblr_no5j5oD1q21ri61l0o1_400.gif'
p133
S'a skateboarder doing a trick inside a drained pool'
p134
sS'tumblr_nju2re8NaP1ssgr2ko1_500.gif'
p135
S'a woman has a conversation with a girl'
p136
sS'tumblr_nq7f66LEk41tzifluo1_400.gif'
p137
S'the vehicle is moving fast into the tunnel'
p138
sS'tumblr_np5aw09Aa31shzpsuo1_500.gif'
p139
S'a girl in black dress is walking in slow motion.'
p140
sS'tumblr_nntpx3AxcV1tyncywo1_500.gif'
p141
S'a sugar glider jumps off a belt on the wall'
p142
sS'tumblr_mvtuwlhSkE1qbnleeo1_500.gif'
p143
S'a man in a hat adjusts his tie and makes a weird face.'
p144
sS'tumblr_nqjagbJPI91sygccjo1_540.gif'
p145
S'two boys are walking, the one in the front licks his finger.'
p146
sS'tumblr_nov5tja4g91rkmzrjo1_400.gif'
p147
S'a man walks into a room and sees a girl floating above the bed'
p148
sS'tumblr_nqq3ibcw841rvg72ao1_400.gif'
p149
S"a cat magically moves away from a man's food."
p150
sS'tumblr_not9zcAaHu1uvzbfuo1_400.gif'
p151
S'a guy are talking and touching his hair.'
p152
sS'tumblr_nonwd4NsEu1qhyoyno1_250.gif'
p153
S"A man and a woman stare into each other's eyes and talk"
p154
sS'tumblr_mevmyaKtDf1rgvhr8o1_500.gif'
p155
S'a man is glaring, and someone with sunglasses appears.'
p156
sS'tumblr_nq2px77Scz1uycuzco1_500.gif'
p157
S'a young person are wearing a bikini and helmet running down a corridor'
p158
sS'tumblr_nok4eeONTv1s2yegdo1_400.gif'
p159
S'a cat tries to catch a mouse on a tablet'
p160
sS'tumblr_n8tb4xoSOr1sxfqdyo1_1280.gif'
p161
S"the roof down and cut the boy's body"
p162
sS'tumblr_nq07jm1AQ51sja1kdo1_500.gif'
p163
S'a bald man drop one bomb and explode the local'
p164
sS'tumblr_mdlv9v6hE91qanrf2o1_r11_500.gif'
p165
S'a brunette woman is looking at the man'
p166
sS'tumblr_nkcmeflaVj1u26rdio1_500.gif'
p167
S'a man on a bicycle is jumping over a fence.'
p168
sS'tumblr_nppe4itAAr1sz4xdoo1_500.gif'
p169
S'a man with a black hat is walking in the rain and he looks angry.'
p170
sS'tumblr_nqlr0rn8ox1r2r0koo1_400.gif'
p171
S'an animal comes close to another in the jungle'
p172
sS'tumblr_nl33vmyhNi1u9vl8lo1_400.gif'
p173
S'two guys are laughing and one falls down to the floor.'
p174
sS'tumblr_nqgz75OOEB1snj1pfo1_500.gif'
p175
S'a man is walking in a crowd in the dark.'
p176
sS'tumblr_npo3mtQ87f1uxcyego1_400.gif'
p177
S'a boy are talking to another boy with an open door.'
p178
sS'tumblr_nohs96BXF91u9mqd6o1_400.gif'
p179
S'a red dinosaur costume tripped on the gym floor.'
p180
sS'tumblr_mllh01J96X1s9npefo1_250.gif'
p181
S'a man dressed in red is dancing.'
p182
sS'tumblr_npw7v7W07C1tmj047o1_250.gif'
p183
S'someone puts a cat on wrapping paper then wraps it up and puts on a bow'
p184
sS'tumblr_nqir72vsUx1sd7dido1_500.gif'
p185
S'a man is sitting in a room, he has a gun on his right hand'
p186
sS'tumblr_nq77k6nh6H1tn6vtbo1_500.gif'
p187
S'a boy are running and jumping over a ball.'
p188
sS'tumblr_noxbsuCyAg1tjhed2o1_500.gif'
p189
S'a man with lights on his jacket watching a large screen tv'
p190
sS'tumblr_nnxshbEKOc1rqd7uco1_500.gif'
p191
S'a man is wearing a cap and headphones making hand gestures in front of a microphone.'
p192
sS'tumblr_npwndlNfA31unrb56o1_400.gif'
p193
S'a car drives through a puddle and drenches people at a bus stop.'
p194
s.